target datalayout = "e-m:e-p270:32:32-p271:32:32-p272:64:64-i64:64-i128:128-f80:128-n8:16:32:64-S128"
target triple = "x86_64-pc-linux-gnu"

%"class.folly::AsyncFdSocket::FdSendMsgParamsCallback" = type { %"class.folly::AsyncSocket::SendMsgParamsCallback", %"class.std::unordered_map.105" }
%"class.folly::AsyncSocket::SendMsgParamsCallback" = type { ptr }
%"class.std::unordered_map.105" = type { %"class.std::_Hashtable.106" }
%"class.std::_Hashtable.106" = type { ptr, i64, %"struct.std::__detail::_Hash_node_base", i64, %"struct.std::__detail::_Prime_rehash_policy", ptr }
%"struct.std::__detail::_Hash_node_base" = type { ptr }
%"struct.std::__detail::_Prime_rehash_policy" = type { float, i64 }
%"class.folly::AsyncFdSocket" = type { %"class.folly::AsyncSocket.base", %"class.folly::AsyncFdSocket::FdSendMsgParamsCallback", %"class.std::queue", %"class.folly::AsyncFdSocket::FdReadAncillaryDataCallback", i64, i64, i64 }
%"class.folly::AsyncSocket.base" = type <{ %"class.folly::AsyncSocketTransport", %"class.std::function", i32, [4 x i8], %"struct.folly::AsyncSocket::ZeroCopyDrainConfig", %"class.std::unordered_map", %"class.std::unordered_map.45", i8, i8, i16, %"struct.folly::NetworkSocket", %"class.folly::SocketAddress", %"class.folly::SocketAddress", i32, i16, i8, i8, ptr, %"class.folly::AsyncSocket::WriteTimeout", %"class.folly::AsyncSocket::IoHandler", %"class.folly::AsyncSocket::ImmediateReadCB", ptr, ptr, ptr, ptr, ptr, ptr, ptr, %"class.std::weak_ptr", i64, i64, i64, i64, i64, %"class.folly::small_vector", %"class.std::unique_ptr", %"class.std::chrono::time_point", %"class.std::chrono::time_point", %"class.folly::Optional", %"class.std::chrono::duration", %"class.std::unique_ptr.82", ptr, %"struct.folly::AsyncSocket::TCPFastOpenInfo", i8, i8, i8, [2 x i8], %"class.std::unique_ptr.90", i8, i8, [6 x i8], i64, i64, i8, [3 x i8], i32, i8, [7 x i8], %"class.folly::netops::DispatcherContainer", %"class.folly::TcpInfoDispatcherContainer", %"class.folly::AsyncSocketObserverContainer", i8 }>
%"class.folly::AsyncSocketTransport" = type { %"class.folly::AsyncTransport", %"class.std::unique_ptr.32", %"class.std::unique_ptr.32" }
%"class.folly::AsyncTransport" = type { %"class.folly::DelayedDestruction.base", %"class.folly::AsyncSocketBase", %"class.folly::AsyncReader", %"class.folly::AsyncWriter", ptr }
%"class.folly::DelayedDestruction.base" = type { %"class.folly::DelayedDestructionBase.base", i8 }
%"class.folly::DelayedDestructionBase.base" = type <{ ptr, i32 }>
%"class.folly::AsyncSocketBase" = type { ptr }
%"class.folly::AsyncReader" = type { ptr }
%"class.folly::AsyncWriter" = type { ptr }
%"class.std::unique_ptr.32" = type { %"struct.std::__uniq_ptr_data.33" }
%"struct.std::__uniq_ptr_data.33" = type { %"class.std::__uniq_ptr_impl.34" }
%"class.std::__uniq_ptr_impl.34" = type { %"class.std::tuple.35" }
%"class.std::tuple.35" = type { %"struct.std::_Tuple_impl.36" }
%"struct.std::_Tuple_impl.36" = type { %"struct.std::_Head_base.39" }
%"struct.std::_Head_base.39" = type { ptr }
%"class.std::function" = type { %"class.std::_Function_base", ptr }
%"class.std::_Function_base" = type { %"union.std::_Any_data", ptr }
%"union.std::_Any_data" = type { %"union.std::_Nocopy_types" }
%"union.std::_Nocopy_types" = type { { i64, i64 } }
%"struct.folly::AsyncSocket::ZeroCopyDrainConfig" = type <{ %"class.std::chrono::duration", %"class.std::optional", [4 x i8] }>
%"class.std::optional" = type { %"struct.std::_Optional_base" }
%"struct.std::_Optional_base" = type { %"struct.std::_Optional_payload" }
%"struct.std::_Optional_payload" = type { %"struct.std::_Optional_payload_base.base", i8 }
%"struct.std::_Optional_payload_base.base" = type <{ %"union.std::_Optional_payload_base<unsigned short>::_Storage", i8 }>
%"union.std::_Optional_payload_base<unsigned short>::_Storage" = type { i16 }
%"class.std::unordered_map" = type { %"class.std::_Hashtable" }
%"class.std::_Hashtable" = type { ptr, i64, %"struct.std::__detail::_Hash_node_base", i64, %"struct.std::__detail::_Prime_rehash_policy", ptr }
%"class.std::unordered_map.45" = type { %"class.std::_Hashtable.46" }
%"class.std::_Hashtable.46" = type { ptr, i64, %"struct.std::__detail::_Hash_node_base", i64, %"struct.std::__detail::_Prime_rehash_policy", ptr }
%"struct.folly::NetworkSocket" = type { i32 }
%"class.folly::SocketAddress" = type <{ %"union.folly::SocketAddress::AddrStorage", i16, i8, [5 x i8] }>
%"union.folly::SocketAddress::AddrStorage" = type { %"struct.folly::SocketAddress::ExternalUnixAddr", [8 x i8] }
%"struct.folly::SocketAddress::ExternalUnixAddr" = type { ptr, i32 }
%"class.folly::AsyncSocket::WriteTimeout" = type { %"class.folly::AsyncTimeout", ptr }
%"class.folly::AsyncTimeout" = type { ptr, %"class.folly::EventBaseEvent", ptr, %"class.std::shared_ptr.76" }
%"class.folly::EventBaseEvent" = type { %struct.event, ptr, ptr, ptr, %"struct.folly::EventCallback" }
%struct.event = type { %struct.event_callback, %union.anon.68, i32, ptr, %union.anon.70, i16, i16, %struct.timeval }
%struct.event_callback = type { %struct.anon, i16, i8, i8, %union.anon.67, ptr }
%struct.anon = type { ptr, ptr }
%union.anon.67 = type { ptr }
%union.anon.68 = type { %struct.anon.69 }
%struct.anon.69 = type { ptr, ptr }
%union.anon.70 = type { %struct.anon.71 }
%struct.anon.71 = type { %struct.anon.72, %struct.timeval }
%struct.anon.72 = type { ptr, ptr }
%struct.timeval = type { i64, i64 }
%"struct.folly::EventCallback" = type { i32, %union.anon.75 }
%union.anon.75 = type { ptr }
%"class.std::shared_ptr.76" = type { %"class.std::__shared_ptr.77" }
%"class.std::__shared_ptr.77" = type { ptr, %"class.std::__shared_count" }
%"class.std::__shared_count" = type { ptr }
%"class.folly::AsyncSocket::IoHandler" = type { %"class.folly::EventHandler", ptr }
%"class.folly::EventHandler" = type { ptr, %"class.folly::EventBaseEvent", ptr }
%"class.folly::AsyncSocket::ImmediateReadCB" = type { %"class.folly::EventBase::LoopCallback", ptr }
%"class.folly::EventBase::LoopCallback" = type { ptr, %"class.boost::intrusive::list_base_hook", %"class.std::shared_ptr.76" }
%"class.boost::intrusive::list_base_hook" = type { %"class.boost::intrusive::generic_hook" }
%"class.boost::intrusive::generic_hook" = type { %"struct.boost::intrusive::node_holder" }
%"struct.boost::intrusive::node_holder" = type { %"struct.boost::intrusive::list_node" }
%"struct.boost::intrusive::list_node" = type { ptr, ptr }
%"class.std::weak_ptr" = type { %"class.std::__weak_ptr" }
%"class.std::__weak_ptr" = type { ptr, %"class.std::__weak_count" }
%"class.std::__weak_count" = type { ptr }
%"class.folly::small_vector" = type { %"struct.boost::operators_impl::totally_ordered1", %"union.folly::small_vector<folly::AsyncSocket::LegacyLifecycleObserver *, 2>::Data" }
%"struct.boost::operators_impl::totally_ordered1" = type { %"struct.boost::operators_impl::less_than_comparable1" }
%"struct.boost::operators_impl::less_than_comparable1" = type { %"struct.boost::operators_impl::equality_comparable1" }
%"struct.boost::operators_impl::equality_comparable1" = type { %"struct.folly::detail::IntegralSizePolicy" }
%"struct.folly::detail::IntegralSizePolicy" = type { %"struct.folly::detail::IntegralSizePolicyBase" }
%"struct.folly::detail::IntegralSizePolicyBase" = type { i64 }
%"union.folly::small_vector<folly::AsyncSocket::LegacyLifecycleObserver *, 2>::Data" = type { %"struct.folly::small_vector<folly::AsyncSocket::LegacyLifecycleObserver *, 2>::HeapPtr", [8 x i8] }
%"struct.folly::small_vector<folly::AsyncSocket::LegacyLifecycleObserver *, 2>::HeapPtr" = type { ptr }
%"class.std::unique_ptr" = type { %"struct.std::__uniq_ptr_data" }
%"struct.std::__uniq_ptr_data" = type { %"class.std::__uniq_ptr_impl" }
%"class.std::__uniq_ptr_impl" = type { %"class.std::tuple" }
%"class.std::tuple" = type { %"struct.std::_Tuple_impl" }
%"struct.std::_Tuple_impl" = type { %"struct.std::_Head_base.1" }
%"struct.std::_Head_base.1" = type { ptr }
%"class.std::chrono::time_point" = type { %"class.std::chrono::duration.80" }
%"class.std::chrono::duration.80" = type { i64 }
%"class.folly::Optional" = type { %"struct.folly::Optional<std::chrono::time_point<std::chrono::_V2::steady_clock, std::chrono::duration<long, std::ratio<1, 1000000000>>>>::StorageTriviallyDestructible" }
%"struct.folly::Optional<std::chrono::time_point<std::chrono::_V2::steady_clock, std::chrono::duration<long, std::ratio<1, 1000000000>>>>::StorageTriviallyDestructible" = type <{ %union.anon.81, i8, [7 x i8] }>
%union.anon.81 = type { %"class.std::chrono::time_point" }
%"class.std::chrono::duration" = type { i64 }
%"class.std::unique_ptr.82" = type { %"struct.std::__uniq_ptr_data.83" }
%"struct.std::__uniq_ptr_data.83" = type { %"class.std::__uniq_ptr_impl.84" }
%"class.std::__uniq_ptr_impl.84" = type { %"class.std::tuple.85" }
%"class.std::tuple.85" = type { %"struct.std::_Tuple_impl.86" }
%"struct.std::_Tuple_impl.86" = type { %"struct.std::_Head_base.89" }
%"struct.std::_Head_base.89" = type { ptr }
%"struct.folly::AsyncSocket::TCPFastOpenInfo" = type { i8, i8, i8 }
%"class.std::unique_ptr.90" = type { %"struct.std::__uniq_ptr_data.91" }
%"struct.std::__uniq_ptr_data.91" = type { %"class.std::__uniq_ptr_impl.92" }
%"class.std::__uniq_ptr_impl.92" = type { %"class.std::tuple.93" }
%"class.std::tuple.93" = type { %"struct.std::_Tuple_impl.94" }
%"struct.std::_Tuple_impl.94" = type { %"struct.std::_Head_base.97" }
%"struct.std::_Head_base.97" = type { ptr }
%"class.folly::netops::DispatcherContainer" = type { %"class.std::shared_ptr" }
%"class.std::shared_ptr" = type { %"class.std::__shared_ptr" }
%"class.std::__shared_ptr" = type { ptr, %"class.std::__shared_count" }
%"class.folly::TcpInfoDispatcherContainer" = type { %"class.std::shared_ptr.10" }
%"class.std::shared_ptr.10" = type { %"class.std::__shared_ptr.11" }
%"class.std::__shared_ptr.11" = type { ptr, %"class.std::__shared_count" }
%"class.folly::AsyncSocketObserverContainer" = type { %"class.folly::ObserverContainer.base", [7 x i8] }
%"class.folly::ObserverContainer.base" = type <{ %"class.folly::ObserverContainerBase", ptr, %"class.folly::ObserverContainerStore", i8 }>
%"class.folly::ObserverContainerBase" = type { ptr }
%"class.folly::ObserverContainerStore" = type <{ %"class.folly::ObserverContainerStoreBase", %"class.folly::small_vector.98", i8, [3 x i8], %"class.folly::Optional.103", i8, [3 x i8] }>
%"class.folly::ObserverContainerStoreBase" = type { ptr }
%"class.folly::small_vector.98" = type { %"struct.boost::operators_impl::totally_ordered1.99", %"union.folly::small_vector<std::shared_ptr<folly::ObserverContainerBase<folly::AsyncSocketObserverInterface, folly::AsyncSocket, folly::ObserverContainerBasePolicyDefault<folly::AsyncSocketObserverInterface::Events, 32>>::Observer>, 2>::Data" }
%"struct.boost::operators_impl::totally_ordered1.99" = type { %"struct.boost::operators_impl::less_than_comparable1.100" }
%"struct.boost::operators_impl::less_than_comparable1.100" = type { %"struct.boost::operators_impl::equality_comparable1.101" }
%"struct.boost::operators_impl::equality_comparable1.101" = type { %"struct.folly::detail::IntegralSizePolicy" }
%"union.folly::small_vector<std::shared_ptr<folly::ObserverContainerBase<folly::AsyncSocketObserverInterface, folly::AsyncSocket, folly::ObserverContainerBasePolicyDefault<folly::AsyncSocketObserverInterface::Events, 32>>::Observer>, 2>::Data" = type { %"struct.folly::small_vector<std::shared_ptr<folly::ObserverContainerBase<folly::AsyncSocketObserverInterface, folly::AsyncSocket, folly::ObserverContainerBasePolicyDefault<folly::AsyncSocketObserverInterface::Events, 32>>::Observer>, 2>::HeapPtrWithCapacity", [16 x i8] }
%"struct.folly::small_vector<std::shared_ptr<folly::ObserverContainerBase<folly::AsyncSocketObserverInterface, folly::AsyncSocket, folly::ObserverContainerBasePolicyDefault<folly::AsyncSocketObserverInterface::Events, 32>>::Observer>, 2>::HeapPtrWithCapacity" = type { ptr, i64 }
%"class.folly::Optional.103" = type { %"struct.folly::Optional<folly::ObserverContainerStoreBase<folly::ObserverContainerBase<folly::AsyncSocketObserverInterface, folly::AsyncSocket, folly::ObserverContainerBasePolicyDefault<folly::AsyncSocketObserverInterface::Events, 32>>::Observer>::InvokeWhileIteratingPolicy>::StorageTriviallyDestructible" }
%"struct.folly::Optional<folly::ObserverContainerStoreBase<folly::ObserverContainerBase<folly::AsyncSocketObserverInterface, folly::AsyncSocket, folly::ObserverContainerBasePolicyDefault<folly::AsyncSocketObserverInterface::Events, 32>>::Observer>::InvokeWhileIteratingPolicy>::StorageTriviallyDestructible" = type <{ %union.anon.104, i8, [3 x i8] }>
%union.anon.104 = type { i32 }
%"class.std::queue" = type { %"class.std::deque" }
%"class.std::deque" = type { %"class.std::_Deque_base" }
%"class.std::_Deque_base" = type { %"struct.std::_Deque_base<folly::SocketFds, std::allocator<folly::SocketFds>>::_Deque_impl" }
%"struct.std::_Deque_base<folly::SocketFds, std::allocator<folly::SocketFds>>::_Deque_impl" = type { %"struct.std::_Deque_base<folly::SocketFds, std::allocator<folly::SocketFds>>::_Deque_impl_data" }
%"struct.std::_Deque_base<folly::SocketFds, std::allocator<folly::SocketFds>>::_Deque_impl_data" = type { ptr, i64, %"struct.std::_Deque_iterator", %"struct.std::_Deque_iterator" }
%"struct.std::_Deque_iterator" = type { ptr, ptr, ptr, ptr }
%"class.folly::AsyncFdSocket::FdReadAncillaryDataCallback" = type { %"class.folly::AsyncSocket::ReadAncillaryDataCallback", ptr, %"struct.std::array.127" }
%"class.folly::AsyncSocket::ReadAncillaryDataCallback" = type { ptr }
%"struct.std::array.127" = type { [1032 x i8] }

; Function Attrs: mustprogress nounwind uwtable
define void @_ZN5folly13AsyncFdSocket14setUpCallbacksEv(ptr noundef nonnull align 8 dereferenceable(2368) %0) #1 align 2 personality ptr @__gxx_personality_v0 {
  %2 = alloca ptr, align 8
  store ptr %0, ptr %2, align 8, !tbaa !45
  %3 = load ptr, ptr %2, align 8
  %4 = getelementptr inbounds nuw %"class.folly::AsyncFdSocket", ptr %3, i32 0, i32 1
  invoke void @_ZN5folly11AsyncSocket17setSendMsgParamCBEPNS0_21SendMsgParamsCallbackE(ptr noundef nonnull align 8 dereferenceable(1145) %3, ptr noundef %4)
          to label %5 unwind label %8

5:                                                ; preds = %1
  %6 = getelementptr inbounds nuw %"class.folly::AsyncFdSocket", ptr %3, i32 0, i32 3
  invoke void @_ZN5folly11AsyncSocket22setReadAncillaryDataCBEPNS0_25ReadAncillaryDataCallbackE(ptr noundef nonnull align 8 dereferenceable(1145) %3, ptr noundef %6)
          to label %7 unwind label %8

7:                                                ; preds = %5
  ret void

8:                                                ; preds = %5, %1
  %9 = landingpad { ptr, i32 }
          catch ptr null
  %10 = extractvalue { ptr, i32 } %9, 0
  call void @__clang_call_terminate(ptr %10) #25
  unreachable
}