; Function Attrs: mustprogress nounwind uwtable
define void @_ZN5folly13AsyncFdSocket14setUpCallbacksEv(ptr noundef nonnull align 8 dereferenceable(2368) %0) local_unnamed_addr #1 align 2 personality ptr @__gxx_personality_v0 {
  %2 = getelementptr inbounds nuw i8, ptr %0, i64 1152
  invoke void @_ZN5folly11AsyncSocket17setSendMsgParamCBEPNS0_21SendMsgParamsCallbackE(ptr noundef nonnull align 8 dereferenceable(1145) %0, ptr noundef nonnull %2)
          to label %3 unwind label %6

3:                                                ; preds = %1
  %4 = getelementptr inbounds nuw i8, ptr %0, i64 1296
  invoke void @_ZN5folly11AsyncSocket22setReadAncillaryDataCBEPNS0_25ReadAncillaryDataCallbackE(ptr noundef nonnull align 8 dereferenceable(1145) %0, ptr noundef nonnull %4)
          to label %5 unwind label %6

5:                                                ; preds = %3
  ret void

6:                                                ; preds = %3, %1
  %7 = landingpad { ptr, i32 }
          catch ptr null
  %8 = extractvalue { ptr, i32 } %7, 0
  tail call void @__clang_call_terminate(ptr %8) #26
  unreachable
}